target datalayout = "e-m:e-p270:32:32-p271:32:32-p272:64:64-i64:64-i128:128-f80:128-n8:16:32:64-S128"
target triple = "x86_64-pc-linux-gnu"

%struct.PlannerInfo = type { i32, ptr, ptr, i32, ptr, ptr, ptr, ptr, i32, ptr, ptr, ptr, ptr, ptr, ptr, ptr, ptr, i32, ptr, ptr, ptr, ptr, ptr, i8, ptr, ptr, ptr, ptr, ptr, i32, ptr, ptr, ptr, ptr, ptr, ptr, ptr, i32, ptr, ptr, ptr, i32, ptr, ptr, ptr, ptr, ptr, ptr, [8 x ptr], [8 x ptr], ptr, ptr, ptr, ptr, ptr, ptr, ptr, double, double, double, i32, i8, i8, i8, i8, i8, i8, i8, i32, ptr, ptr, i32, i8, i8, i32, ptr, ptr, ptr, ptr, ptr, ptr, i8, ptr }
%struct.RelOptInfo = type { i32, i32, ptr, double, i8, i8, i8, ptr, ptr, ptr, ptr, ptr, ptr, ptr, ptr, ptr, ptr, i32, i32, i32, i16, i16, ptr, ptr, ptr, ptr, ptr, ptr, ptr, ptr, i32, double, double, ptr, ptr, ptr, i32, i32, i32, i32, i8, ptr, ptr, ptr, ptr, ptr, %struct.QualCost, i32, ptr, i8, i8, ptr, ptr, ptr, ptr, i32, ptr, i8, ptr, ptr, ptr, ptr, ptr, ptr }
%struct.QualCost = type { double, double }
%struct.List = type { i32, i32, i32, ptr, [0 x %union.ListCell] }
%union.ListCell = type { ptr }
%struct.ForEachState = type { ptr, i32 }
%struct.Clump = type { ptr, i32 }

; Function Attrs: inlinehint nounwind uwtable
define internal ptr @list_nth_cell(ptr noundef %0, i32 noundef %1) #3 {
  %3 = alloca ptr, align 8
  %4 = alloca i32, align 4
  store ptr %0, ptr %3, align 8
  store i32 %1, ptr %4, align 4
  %5 = load ptr, ptr %3, align 8
  %6 = getelementptr inbounds nuw %struct.List, ptr %5, i32 0, i32 3
  %7 = load ptr, ptr %6, align 8
  %8 = load i32, ptr %4, align 4
  %9 = sext i32 %8 to i64
  %10 = getelementptr inbounds %union.ListCell, ptr %7, i64 %9
  ret ptr %10
}

; Function Attrs: inlinehint nounwind uwtable
define internal ptr @list_nth(ptr noundef %0, i32 noundef %1) #3 {
  %3 = alloca ptr, align 8
  %4 = alloca i32, align 4
  store ptr %0, ptr %3, align 8
  store i32 %1, ptr %4, align 4
  %5 = load ptr, ptr %3, align 8
  %6 = load i32, ptr %4, align 4
  %7 = call ptr @list_nth_cell(ptr noundef %5, i32 noundef %6)
  %8 = load ptr, ptr %7, align 8
  ret ptr %8
}

; Function Attrs: inlinehint nounwind uwtable
define internal i32 @list_length(ptr noundef %0) #3 {
  %2 = alloca ptr, align 8
  store ptr %0, ptr %2, align 8
  %3 = load ptr, ptr %2, align 8
  %4 = icmp ne ptr %3, null
  br i1 %4, label %5, label %9

5:                                                ; preds = %1
  %6 = load ptr, ptr %2, align 8
  %7 = getelementptr inbounds nuw %struct.List, ptr %6, i32 0, i32 1
  %8 = load i32, ptr %7, align 4
  br label %10

9:                                                ; preds = %1
  br label %10

10:                                               ; preds = %9, %5
  %11 = phi i32 [ %8, %5 ], [ 0, %9 ]
  ret i32 %11
}

; Function Attrs: nounwind uwtable
define internal zeroext i1 @desirable_join(ptr noundef %0, ptr noundef %1, ptr noundef %2) #0 {
  %4 = alloca i1, align 1
  %5 = alloca ptr, align 8
  %6 = alloca ptr, align 8
  %7 = alloca ptr, align 8
  store ptr %0, ptr %5, align 8
  store ptr %1, ptr %6, align 8
  store ptr %2, ptr %7, align 8
  %8 = load ptr, ptr %5, align 8
  %9 = load ptr, ptr %6, align 8
  %10 = load ptr, ptr %7, align 8
  %11 = call zeroext i1 @have_relevant_joinclause(ptr noundef %8, ptr noundef %9, ptr noundef %10)
  br i1 %11, label %17, label %12

12:                                               ; preds = %3
  %13 = load ptr, ptr %5, align 8
  %14 = load ptr, ptr %6, align 8
  %15 = load ptr, ptr %7, align 8
  %16 = call zeroext i1 @have_join_order_restriction(ptr noundef %13, ptr noundef %14, ptr noundef %15)
  br i1 %16, label %17, label %18

17:                                               ; preds = %12, %3
  store i1 true, ptr %4, align 1
  br label %19

18:                                               ; preds = %12
  store i1 false, ptr %4, align 1
  br label %19

19:                                               ; preds = %18, %17
  %20 = load i1, ptr %4, align 1
  ret i1 %20
}

; Function Attrs: nounwind uwtable
define internal ptr @merge_clump(ptr noundef %0, ptr noundef %1, ptr noundef %2, i32 noundef %3, i1 noundef zeroext %4) #0 {
  %6 = alloca ptr, align 8
  %7 = alloca ptr, align 8
  %8 = alloca ptr, align 8
  %9 = alloca ptr, align 8
  %10 = alloca i32, align 4
  %11 = alloca i8, align 1
  %12 = alloca ptr, align 8
  %13 = alloca i32, align 4
  %14 = alloca %struct.ForEachState, align 8
  %15 = alloca i32, align 4
  %16 = alloca ptr, align 8
  %17 = alloca ptr, align 8
  %18 = alloca ptr, align 8
  store ptr %0, ptr %7, align 8
  store ptr %1, ptr %8, align 8
  store ptr %2, ptr %9, align 8
  store i32 %3, ptr %10, align 4
  %19 = zext i1 %4 to i8
  store i8 %19, ptr %11, align 1
  call void @llvm.lifetime.start.p0(i64 8, ptr %12) #5
  call void @llvm.lifetime.start.p0(i64 4, ptr %13) #5
  call void @llvm.lifetime.start.p0(i64 16, ptr %14) #5
  %20 = getelementptr inbounds nuw %struct.ForEachState, ptr %14, i32 0, i32 0
  %21 = load ptr, ptr %8, align 8
  store ptr %21, ptr %20, align 8
  %22 = getelementptr inbounds nuw %struct.ForEachState, ptr %14, i32 0, i32 1
  store i32 0, ptr %22, align 8
  %23 = getelementptr i8, ptr %14, i64 12
  call void @llvm.memset.p0.i64(ptr align 4 %23, i8 0, i64 4, i1 false)
  br label %24

24:                                               ; preds = %122, %5
  %25 = getelementptr inbounds nuw %struct.ForEachState, ptr %14, i32 0, i32 0
  %26 = load ptr, ptr %25, align 8
  %27 = icmp ne ptr %26, null
  br i1 %27, label %28, label %45

28:                                               ; preds = %24
  %29 = getelementptr inbounds nuw %struct.ForEachState, ptr %14, i32 0, i32 1
  %30 = load i32, ptr %29, align 8
  %31 = getelementptr inbounds nuw %struct.ForEachState, ptr %14, i32 0, i32 0
  %32 = load ptr, ptr %31, align 8
  %33 = getelementptr inbounds nuw %struct.List, ptr %32, i32 0, i32 1
  %34 = load i32, ptr %33, align 4
  %35 = icmp slt i32 %30, %34
  br i1 %35, label %36, label %45

36:                                               ; preds = %28
  %37 = getelementptr inbounds nuw %struct.ForEachState, ptr %14, i32 0, i32 0
  %38 = load ptr, ptr %37, align 8
  %39 = getelementptr inbounds nuw %struct.List, ptr %38, i32 0, i32 3
  %40 = load ptr, ptr %39, align 8
  %41 = getelementptr inbounds nuw %struct.ForEachState, ptr %14, i32 0, i32 1
  %42 = load i32, ptr %41, align 8
  %43 = sext i32 %42 to i64
  %44 = getelementptr inbounds %union.ListCell, ptr %40, i64 %43
  store ptr %44, ptr %12, align 8
  br label %46

45:                                               ; preds = %28, %24
  store ptr null, ptr %12, align 8
  br label %46

46:                                               ; preds = %45, %36
  %47 = phi i32 [ 1, %36 ], [ 0, %45 ]
  %48 = icmp ne i32 %47, 0
  br i1 %48, label %50, label %49

49:                                               ; preds = %46
  store i32 2, ptr %15, align 4
  br label %126

50:                                               ; preds = %46
  call void @llvm.lifetime.start.p0(i64 8, ptr %16) #5
  %51 = load ptr, ptr %12, align 8
  %52 = load ptr, ptr %51, align 8
  store ptr %52, ptr %16, align 8
  %53 = load i8, ptr %11, align 1, !range !7, !noundef !8
  %54 = trunc i8 %53 to i1
  br i1 %54, label %64, label %55

55:                                               ; preds = %50
  %56 = load ptr, ptr %7, align 8
  %57 = load ptr, ptr %16, align 8
  %58 = getelementptr inbounds nuw %struct.Clump, ptr %57, i32 0, i32 0
  %59 = load ptr, ptr %58, align 8
  %60 = load ptr, ptr %9, align 8
  %61 = getelementptr inbounds nuw %struct.Clump, ptr %60, i32 0, i32 0
  %62 = load ptr, ptr %61, align 8
  %63 = call zeroext i1 @desirable_join(ptr noundef %56, ptr noundef %59, ptr noundef %62)
  br i1 %63, label %64, label %118

64:                                               ; preds = %55, %50
  call void @llvm.lifetime.start.p0(i64 8, ptr %17) #5
  %65 = load ptr, ptr %7, align 8
  %66 = load ptr, ptr %16, align 8
  %67 = getelementptr inbounds nuw %struct.Clump, ptr %66, i32 0, i32 0
  %68 = load ptr, ptr %67, align 8
  %69 = load ptr, ptr %9, align 8
  %70 = getelementptr inbounds nuw %struct.Clump, ptr %69, i32 0, i32 0
  %71 = load ptr, ptr %70, align 8
  %72 = call ptr @make_join_rel(ptr noundef %65, ptr noundef %68, ptr noundef %71)
  store ptr %72, ptr %17, align 8
  %73 = load ptr, ptr %17, align 8
  %74 = icmp ne ptr %73, null
  br i1 %74, label %75, label %114

75:                                               ; preds = %64
  %76 = load ptr, ptr %7, align 8
  %77 = load ptr, ptr %17, align 8
  call void @generate_partitionwise_join_paths(ptr noundef %76, ptr noundef %77)
  %78 = load ptr, ptr %17, align 8
  %79 = getelementptr inbounds nuw %struct.RelOptInfo, ptr %78, i32 0, i32 2
  %80 = load ptr, ptr %79, align 8
  %81 = load ptr, ptr %7, align 8
  %82 = getelementptr inbounds nuw %struct.PlannerInfo, ptr %81, i32 0, i32 13
  %83 = load ptr, ptr %82, align 8
  %84 = call zeroext i1 @bms_equal(ptr noundef %80, ptr noundef %83)
  br i1 %84, label %88, label %85

85:                                               ; preds = %75
  %86 = load ptr, ptr %7, align 8
  %87 = load ptr, ptr %17, align 8
  call void @generate_useful_gather_paths(ptr noundef %86, ptr noundef %87, i1 noundef zeroext false)
  br label %88

88:                                               ; preds = %85, %75
  %89 = load ptr, ptr %17, align 8
  call void @set_cheapest(ptr noundef %89)
  %90 = load ptr, ptr %17, align 8
  %91 = load ptr, ptr %16, align 8
  %92 = getelementptr inbounds nuw %struct.Clump, ptr %91, i32 0, i32 0
  store ptr %90, ptr %92, align 8
  %93 = load ptr, ptr %9, align 8
  %94 = getelementptr inbounds nuw %struct.Clump, ptr %93, i32 0, i32 1
  %95 = load i32, ptr %94, align 8
  %96 = load ptr, ptr %16, align 8
  %97 = getelementptr inbounds nuw %struct.Clump, ptr %96, i32 0, i32 1
  %98 = load i32, ptr %97, align 8
  %99 = add i32 %98, %95
  store i32 %99, ptr %97, align 8
  %100 = load ptr, ptr %9, align 8
  call void @pfree(ptr noundef %100)
  %101 = load ptr, ptr %8, align 8
  %102 = getelementptr inbounds nuw %struct.ForEachState, ptr %14, i32 0, i32 1
  %103 = load i32, ptr %102, align 8
  %104 = add i32 %103, -1
  store i32 %104, ptr %102, align 8
  %105 = call ptr @list_delete_nth_cell(ptr noundef %101, i32 noundef %103)
  %106 = getelementptr inbounds nuw %struct.ForEachState, ptr %14, i32 0, i32 0
  store ptr %105, ptr %106, align 8
  store ptr %105, ptr %8, align 8
  %107 = load ptr, ptr %7, align 8
  %108 = load ptr, ptr %8, align 8
  %109 = load ptr, ptr %16, align 8
  %110 = load i32, ptr %10, align 4
  %111 = load i8, ptr %11, align 1, !range !7, !noundef !8
  %112 = trunc i8 %111 to i1
  %113 = call ptr @merge_clump(ptr noundef %107, ptr noundef %108, ptr noundef %109, i32 noundef %110, i1 noundef zeroext %112)
  store ptr %113, ptr %6, align 8
  store i32 1, ptr %15, align 4
  br label %115

114:                                              ; preds = %64
  store i32 0, ptr %15, align 4
  br label %115

115:                                              ; preds = %114, %88
  call void @llvm.lifetime.end.p0(i64 8, ptr %17) #5
  %116 = load i32, ptr %15, align 4
  switch i32 %116, label %119 [
    i32 0, label %117
  ]

117:                                              ; preds = %115
  br label %118

118:                                              ; preds = %117, %55
  store i32 0, ptr %15, align 4
  br label %119

119:                                              ; preds = %118, %115
  call void @llvm.lifetime.end.p0(i64 8, ptr %16) #5
  %120 = load i32, ptr %15, align 4
  switch i32 %120, label %126 [
    i32 0, label %121
  ]

121:                                              ; preds = %119
  br label %122

122:                                              ; preds = %121
  %123 = getelementptr inbounds nuw %struct.ForEachState, ptr %14, i32 0, i32 1
  %124 = load i32, ptr %123, align 8
  %125 = add i32 %124, 1
  store i32 %125, ptr %123, align 8
  br label %24, !llvm.loop !9

126:                                              ; preds = %119, %49
  call void @llvm.lifetime.end.p0(i64 16, ptr %14) #5
  %127 = load i32, ptr %15, align 4
  switch i32 %127, label %171 [
    i32 2, label %128
  ]

128:                                              ; preds = %126
  %129 = load ptr, ptr %8, align 8
  %130 = icmp eq ptr %129, null
  br i1 %130, label %136, label %131

131:                                              ; preds = %128
  %132 = load ptr, ptr %9, align 8
  %133 = getelementptr inbounds nuw %struct.Clump, ptr %132, i32 0, i32 1
  %134 = load i32, ptr %133, align 8
  %135 = icmp eq i32 %134, 1
  br i1 %135, label %136, label %140

136:                                              ; preds = %131, %128
  %137 = load ptr, ptr %8, align 8
  %138 = load ptr, ptr %9, align 8
  %139 = call ptr @lappend(ptr noundef %137, ptr noundef %138)
  store ptr %139, ptr %6, align 8
  store i32 1, ptr %15, align 4
  br label %171

140:                                              ; preds = %131
  store i32 0, ptr %13, align 4
  br label %141

141:                                              ; preds = %162, %140
  %142 = load i32, ptr %13, align 4
  %143 = load ptr, ptr %8, align 8
  %144 = call i32 @list_length(ptr noundef %143)
  %145 = icmp slt i32 %142, %144
  br i1 %145, label %146, label %165

146:                                              ; preds = %141
  call void @llvm.lifetime.start.p0(i64 8, ptr %18) #5
  %147 = load ptr, ptr %8, align 8
  %148 = load i32, ptr %13, align 4
  %149 = call ptr @list_nth(ptr noundef %147, i32 noundef %148)
  store ptr %149, ptr %18, align 8
  %150 = load ptr, ptr %9, align 8
  %151 = getelementptr inbounds nuw %struct.Clump, ptr %150, i32 0, i32 1
  %152 = load i32, ptr %151, align 8
  %153 = load ptr, ptr %18, align 8
  %154 = getelementptr inbounds nuw %struct.Clump, ptr %153, i32 0, i32 1
  %155 = load i32, ptr %154, align 8
  %156 = icmp sgt i32 %152, %155
  br i1 %156, label %157, label %158

157:                                              ; preds = %146
  store i32 5, ptr %15, align 4
  br label %159

158:                                              ; preds = %146
  store i32 0, ptr %15, align 4
  br label %159

159:                                              ; preds = %158, %157
  call void @llvm.lifetime.end.p0(i64 8, ptr %18) #5
  %160 = load i32, ptr %15, align 4
  switch i32 %160, label %173 [
    i32 0, label %161
    i32 5, label %165
  ]

161:                                              ; preds = %159
  br label %162

162:                                              ; preds = %161
  %163 = load i32, ptr %13, align 4
  %164 = add i32 %163, 1
  store i32 %164, ptr %13, align 4
  br label %141, !llvm.loop !10

165:                                              ; preds = %159, %141
  %166 = load ptr, ptr %8, align 8
  %167 = load i32, ptr %13, align 4
  %168 = load ptr, ptr %9, align 8
  %169 = call ptr @list_insert_nth(ptr noundef %166, i32 noundef %167, ptr noundef %168)
  store ptr %169, ptr %8, align 8
  %170 = load ptr, ptr %8, align 8
  store ptr %170, ptr %6, align 8
  store i32 1, ptr %15, align 4
  br label %171

171:                                              ; preds = %165, %136, %126
  call void @llvm.lifetime.end.p0(i64 4, ptr %13) #5
  call void @llvm.lifetime.end.p0(i64 8, ptr %12) #5
  %172 = load ptr, ptr %6, align 8
  ret ptr %172

173:                                              ; preds = %159
  unreachable
}